target datalayout = "e-m:e-p270:32:32-p271:32:32-p272:64:64-i64:64-i128:128-f80:128-n8:16:32:64-S128"
target triple = "x86_64-pc-linux-gnu"

%struct.pmix_object_t = type { %union.pthread_mutex_t, ptr, i32, %struct.pmix_tma }
%union.pthread_mutex_t = type { %struct.__pthread_mutex_s }
%struct.__pthread_mutex_s = type { i32, i32, i32, i32, i32, i16, i16, %struct.__pthread_internal_list }
%struct.__pthread_internal_list = type { ptr, ptr }
%struct.pmix_tma = type { ptr, ptr, ptr, ptr, ptr, ptr, ptr, ptr }
%struct.pmix_mca_base_framework_t = type { ptr, ptr, ptr, ptr, ptr, ptr, i32, i32, ptr, ptr, i32, i32, %struct.pmix_list_t, %struct.pmix_list_t }
%struct.pmix_list_t = type { %struct.pmix_object_t, %struct.pmix_list_item_t, i64 }
%struct.pmix_list_item_t = type { %struct.pmix_object_t, ptr, ptr, i32 }
%struct.pmix_output_desc_t = type { i8, i8, i32, i8, i32, ptr, ptr, i32, ptr, i32, i8, i8, i8, i8, ptr, i32, i32 }
%struct.pmix_buffer_t = type { %struct.pmix_object_t, i8, ptr, ptr, ptr, i64, i64 }
%union.anon.0 = type { i64 }

@pmix_bfrops_base_framework = external global %struct.pmix_mca_base_framework_t, align 8
@pmix_output_info = external global [0 x %struct.pmix_output_desc_t], align 8
@.str.5 = private unnamed_addr constant [30 x i8] c"pmix20_bfrop_pack_int64 * %d\0A\00", align 1

; Function Attrs: inlinehint nounwind uwtable
define internal i32 @__bswap_32(i32 noundef %0) #3 {
  %2 = alloca i32, align 4
  store i32 %0, ptr %2, align 4, !tbaa !7
  %3 = load i32, ptr %2, align 4, !tbaa !7
  %4 = and i32 %3, -16777216
  %5 = lshr i32 %4, 24
  %6 = load i32, ptr %2, align 4, !tbaa !7
  %7 = and i32 %6, 16711680
  %8 = lshr i32 %7, 8
  %9 = or i32 %5, %8
  %10 = load i32, ptr %2, align 4, !tbaa !7
  %11 = and i32 %10, 65280
  %12 = shl i32 %11, 8
  %13 = or i32 %9, %12
  %14 = load i32, ptr %2, align 4, !tbaa !7
  %15 = and i32 %14, 255
  %16 = shl i32 %15, 24
  %17 = or i32 %13, %16
  ret i32 %17
}

; Function Attrs: inlinehint nounwind willreturn memory(none) uwtable
define internal i64 @pmix_hton64(i64 noundef %0) #5 {
  %2 = alloca i64, align 8
  %3 = alloca i64, align 8
  %4 = alloca %union.anon.0, align 8
  %5 = alloca %union.anon.0, align 8
  %6 = alloca i32, align 4
  store i64 %0, ptr %3, align 8, !tbaa !52
  call void @llvm.lifetime.start.p0(i64 8, ptr %4) #9
  call void @llvm.lifetime.start.p0(i64 8, ptr %5) #9
  %7 = call i32 @__bswap_32(i32 noundef 1)
  %8 = zext i32 %7 to i64
  %9 = icmp eq i64 %8, 1
  br i1 %9, label %10, label %12

10:                                               ; preds = %1
  %11 = load i64, ptr %3, align 8, !tbaa !52
  store i64 %11, ptr %2, align 8
  store i32 1, ptr %6, align 4
  br label %23

12:                                               ; preds = %1
  %13 = load i64, ptr %3, align 8, !tbaa !52
  store i64 %13, ptr %4, align 8, !tbaa !47
  %14 = getelementptr inbounds [2 x i32], ptr %4, i64 0, i64 1
  %15 = load i32, ptr %14, align 4, !tbaa !47
  %16 = call i32 @__bswap_32(i32 noundef %15)
  %17 = getelementptr inbounds [2 x i32], ptr %5, i64 0, i64 0
  store i32 %16, ptr %17, align 8, !tbaa !47
  %18 = getelementptr inbounds [2 x i32], ptr %4, i64 0, i64 0
  %19 = load i32, ptr %18, align 8, !tbaa !47
  %20 = call i32 @__bswap_32(i32 noundef %19)
  %21 = getelementptr inbounds [2 x i32], ptr %5, i64 0, i64 1
  store i32 %20, ptr %21, align 4, !tbaa !47
  %22 = load i64, ptr %5, align 8, !tbaa !47
  store i64 %22, ptr %2, align 8
  store i32 1, ptr %6, align 4
  br label %23

23:                                               ; preds = %12, %10
  call void @llvm.lifetime.end.p0(i64 8, ptr %5) #9
  call void @llvm.lifetime.end.p0(i64 8, ptr %4) #9
  %24 = load i64, ptr %2, align 8
  ret i64 %24
}

; Function Attrs: nounwind uwtable
define i32 @pmix20_bfrop_pack_int64(ptr noundef %0, ptr noundef %1, ptr noundef %2, i32 noundef %3, i16 noundef zeroext %4) #0 {
  %6 = alloca i32, align 4
  %7 = alloca ptr, align 8
  %8 = alloca ptr, align 8
  %9 = alloca ptr, align 8
  %10 = alloca i32, align 4
  %11 = alloca i16, align 2
  %12 = alloca i32, align 4
  %13 = alloca i64, align 8
  %14 = alloca i64, align 8
  %15 = alloca ptr, align 8
  %16 = alloca i64, align 8
  %17 = alloca i32, align 4
  store ptr %0, ptr %7, align 8, !tbaa !11
  store ptr %1, ptr %8, align 8, !tbaa !3
  store ptr %2, ptr %9, align 8, !tbaa !3
  store i32 %3, ptr %10, align 4, !tbaa !7
  store i16 %4, ptr %11, align 2, !tbaa !9
  call void @llvm.lifetime.start.p0(i64 4, ptr %12) #9
  call void @llvm.lifetime.start.p0(i64 8, ptr %13) #9
  call void @llvm.lifetime.start.p0(i64 8, ptr %14) #9
  call void @llvm.lifetime.start.p0(i64 8, ptr %15) #9
  call void @llvm.lifetime.start.p0(i64 8, ptr %16) #9
  %18 = load i32, ptr %10, align 4, !tbaa !7
  %19 = sext i32 %18 to i64
  %20 = mul i64 %19, 8
  store i64 %20, ptr %16, align 8, !tbaa !52
  %21 = load i32, ptr getelementptr inbounds nuw (%struct.pmix_mca_base_framework_t, ptr @pmix_bfrops_base_framework, i32 0, i32 11), align 4, !tbaa !22
  %22 = icmp sge i32 %21, 0
  br i1 %22, label %23, label %36

23:                                               ; preds = %5
  %24 = load i32, ptr getelementptr inbounds nuw (%struct.pmix_mca_base_framework_t, ptr @pmix_bfrops_base_framework, i32 0, i32 11), align 4, !tbaa !22
  %25 = icmp slt i32 %24, 64
  br i1 %25, label %26, label %36

26:                                               ; preds = %23
  %27 = load i32, ptr getelementptr inbounds nuw (%struct.pmix_mca_base_framework_t, ptr @pmix_bfrops_base_framework, i32 0, i32 11), align 4, !tbaa !22
  %28 = sext i32 %27 to i64
  %29 = getelementptr inbounds [0 x %struct.pmix_output_desc_t], ptr @pmix_output_info, i64 0, i64 %28
  %30 = getelementptr inbounds nuw %struct.pmix_output_desc_t, ptr %29, i32 0, i32 2
  %31 = load i32, ptr %30, align 4, !tbaa !28
  %32 = icmp sge i32 %31, 20
  br i1 %32, label %33, label %36

33:                                               ; preds = %26
  %34 = load i32, ptr getelementptr inbounds nuw (%struct.pmix_mca_base_framework_t, ptr @pmix_bfrops_base_framework, i32 0, i32 11), align 4, !tbaa !22
  %35 = load i32, ptr %10, align 4, !tbaa !7
  call void (i32, ptr, ...) @pmix_output(i32 noundef %34, ptr noundef @.str.5, i32 noundef %35)
  br label %36

36:                                               ; preds = %33, %26, %23, %5
  %37 = load ptr, ptr %8, align 8, !tbaa !3
  %38 = load i64, ptr %16, align 8, !tbaa !52
  %39 = call ptr @pmix_bfrop_buffer_extend(ptr noundef %37, i64 noundef %38)
  store ptr %39, ptr %15, align 8, !tbaa !31
  %40 = icmp eq ptr null, %39
  br i1 %40, label %41, label %42

41:                                               ; preds = %36
  store i32 -29, ptr %6, align 4
  store i32 1, ptr %17, align 4
  br label %72

42:                                               ; preds = %36
  store i32 0, ptr %12, align 4, !tbaa !7
  br label %43

43:                                               ; preds = %58, %42
  %44 = load i32, ptr %12, align 4, !tbaa !7
  %45 = load i32, ptr %10, align 4, !tbaa !7
  %46 = icmp slt i32 %44, %45
  br i1 %46, label %47, label %61

47:                                               ; preds = %43
  %48 = load ptr, ptr %9, align 8, !tbaa !3
  %49 = load i32, ptr %12, align 4, !tbaa !7
  %50 = sext i32 %49 to i64
  %51 = mul i64 %50, 8
  %52 = getelementptr inbounds nuw i8, ptr %48, i64 %51
  call void @llvm.memcpy.p0.p0.i64(ptr align 8 %14, ptr align 1 %52, i64 8, i1 false)
  %53 = load i64, ptr %14, align 8, !tbaa !52
  %54 = call i64 @pmix_hton64(i64 noundef %53) #10
  store i64 %54, ptr %13, align 8, !tbaa !52
  %55 = load ptr, ptr %15, align 8, !tbaa !31
  call void @llvm.memcpy.p0.p0.i64(ptr align 1 %55, ptr align 8 %13, i64 8, i1 false)
  %56 = load ptr, ptr %15, align 8, !tbaa !31
  %57 = getelementptr inbounds nuw i8, ptr %56, i64 8
  store ptr %57, ptr %15, align 8, !tbaa !31
  br label %58

58:                                               ; preds = %47
  %59 = load i32, ptr %12, align 4, !tbaa !7
  %60 = add nsw i32 %59, 1
  store i32 %60, ptr %12, align 4, !tbaa !7
  br label %43, !llvm.loop !53

61:                                               ; preds = %43
  %62 = load i64, ptr %16, align 8, !tbaa !52
  %63 = load ptr, ptr %8, align 8, !tbaa !3
  %64 = getelementptr inbounds nuw %struct.pmix_buffer_t, ptr %63, i32 0, i32 3
  %65 = load ptr, ptr %64, align 8, !tbaa !34
  %66 = getelementptr inbounds nuw i8, ptr %65, i64 %62
  store ptr %66, ptr %64, align 8, !tbaa !34
  %67 = load i64, ptr %16, align 8, !tbaa !52
  %68 = load ptr, ptr %8, align 8, !tbaa !3
  %69 = getelementptr inbounds nuw %struct.pmix_buffer_t, ptr %68, i32 0, i32 6
  %70 = load i64, ptr %69, align 8, !tbaa !35
  %71 = add i64 %70, %67
  store i64 %71, ptr %69, align 8, !tbaa !35
  store i32 0, ptr %6, align 4
  store i32 1, ptr %17, align 4
  br label %72

72:                                               ; preds = %61, %41
  call void @llvm.lifetime.end.p0(i64 8, ptr %16) #9
  call void @llvm.lifetime.end.p0(i64 8, ptr %15) #9
  call void @llvm.lifetime.end.p0(i64 8, ptr %14) #9
  call void @llvm.lifetime.end.p0(i64 8, ptr %13) #9
  call void @llvm.lifetime.end.p0(i64 4, ptr %12) #9
  %73 = load i32, ptr %6, align 4
  ret i32 %73
}